target datalayout = "e-m:e-p270:32:32-p271:32:32-p272:64:64-i64:64-i128:128-f80:128-n8:16:32:64-S128"
target triple = "x86_64-pc-linux-gnu"

; Function Attrs: nounwind uwtable
define dso_local i64 @compute_something_fast() #0 {
  %1 = alloca [256 x i8], align 16
  %2 = alloca i8, align 1
  %3 = alloca i8, align 1
  %4 = alloca i8, align 1
  %5 = alloca i32, align 4
  %6 = alloca i32, align 4
  %7 = alloca i64, align 8
  call void @llvm.lifetime.start.p0(i64 256, ptr %1) #15
  call void @llvm.lifetime.start.p0(i64 1, ptr %2) #15
  call void @llvm.lifetime.start.p0(i64 1, ptr %3) #15
  call void @llvm.lifetime.start.p0(i64 1, ptr %4) #15
  call void @llvm.lifetime.start.p0(i64 4, ptr %5) #15
  store i32 1000, ptr %5, align 4, !tbaa !10
  call void @llvm.lifetime.start.p0(i64 4, ptr %6) #15
  call void @llvm.lifetime.start.p0(i64 8, ptr %7) #15
  store i64 0, ptr %7, align 8, !tbaa !27
  store i32 0, ptr %6, align 4, !tbaa !10
  br label %8

8:                                                ; preds = %17, %0
  %9 = load i32, ptr %6, align 4, !tbaa !10
  %10 = icmp slt i32 %9, 256
  br i1 %10, label %11, label %20

11:                                               ; preds = %8
  %12 = load i32, ptr %6, align 4, !tbaa !10
  %13 = trunc i32 %12 to i8
  %14 = load i32, ptr %6, align 4, !tbaa !10
  %15 = sext i32 %14 to i64
  %16 = getelementptr inbounds [256 x i8], ptr %1, i64 0, i64 %15
  store i8 %13, ptr %16, align 1, !tbaa !79
  br label %17

17:                                               ; preds = %11
  %18 = load i32, ptr %6, align 4, !tbaa !10
  %19 = add nsw i32 %18, 1
  store i32 %19, ptr %6, align 4, !tbaa !10
  br label %8, !llvm.loop !237

20:                                               ; preds = %8
  store i8 0, ptr %2, align 1, !tbaa !79
  store i8 0, ptr %3, align 1, !tbaa !79
  br label %21

21:                                               ; preds = %25, %20
  %22 = load i32, ptr %5, align 4, !tbaa !10
  %23 = add nsw i32 %22, -1
  store i32 %23, ptr %5, align 4, !tbaa !10
  %24 = icmp ne i32 %22, 0
  br i1 %24, label %25, label %70

25:                                               ; preds = %21
  %26 = load i8, ptr %2, align 1, !tbaa !79
  %27 = add i8 %26, 1
  store i8 %27, ptr %2, align 1, !tbaa !79
  %28 = load i8, ptr %3, align 1, !tbaa !79
  %29 = zext i8 %28 to i32
  %30 = load i8, ptr %2, align 1, !tbaa !79
  %31 = zext i8 %30 to i64
  %32 = getelementptr inbounds nuw [256 x i8], ptr %1, i64 0, i64 %31
  %33 = load i8, ptr %32, align 1, !tbaa !79
  %34 = zext i8 %33 to i32
  %35 = add nsw i32 %29, %34
  %36 = trunc i32 %35 to i8
  store i8 %36, ptr %3, align 1, !tbaa !79
  %37 = load i8, ptr %2, align 1, !tbaa !79
  %38 = zext i8 %37 to i64
  %39 = getelementptr inbounds nuw [256 x i8], ptr %1, i64 0, i64 %38
  %40 = load i8, ptr %39, align 1, !tbaa !79
  store i8 %40, ptr %4, align 1, !tbaa !79
  %41 = load i8, ptr %3, align 1, !tbaa !79
  %42 = zext i8 %41 to i64
  %43 = getelementptr inbounds nuw [256 x i8], ptr %1, i64 0, i64 %42
  %44 = load i8, ptr %43, align 1, !tbaa !79
  %45 = load i8, ptr %2, align 1, !tbaa !79
  %46 = zext i8 %45 to i64
  %47 = getelementptr inbounds nuw [256 x i8], ptr %1, i64 0, i64 %46
  store i8 %44, ptr %47, align 1, !tbaa !79
  %48 = load i8, ptr %4, align 1, !tbaa !79
  %49 = load i8, ptr %3, align 1, !tbaa !79
  %50 = zext i8 %49 to i64
  %51 = getelementptr inbounds nuw [256 x i8], ptr %1, i64 0, i64 %50
  store i8 %48, ptr %51, align 1, !tbaa !79
  %52 = load i8, ptr %2, align 1, !tbaa !79
  %53 = zext i8 %52 to i64
  %54 = getelementptr inbounds nuw [256 x i8], ptr %1, i64 0, i64 %53
  %55 = load i8, ptr %54, align 1, !tbaa !79
  %56 = zext i8 %55 to i32
  %57 = load i8, ptr %3, align 1, !tbaa !79
  %58 = zext i8 %57 to i64
  %59 = getelementptr inbounds nuw [256 x i8], ptr %1, i64 0, i64 %58
  %60 = load i8, ptr %59, align 1, !tbaa !79
  %61 = zext i8 %60 to i32
  %62 = add nsw i32 %56, %61
  %63 = and i32 %62, 255
  %64 = sext i32 %63 to i64
  %65 = getelementptr inbounds [256 x i8], ptr %1, i64 0, i64 %64
  %66 = load i8, ptr %65, align 1, !tbaa !79
  %67 = zext i8 %66 to i64
  %68 = load i64, ptr %7, align 8, !tbaa !27
  %69 = add i64 %68, %67
  store i64 %69, ptr %7, align 8, !tbaa !27
  br label %21, !llvm.loop !238

70:                                               ; preds = %21
  %71 = load i64, ptr %7, align 8, !tbaa !27
  call void @llvm.lifetime.end.p0(i64 8, ptr %7) #15
  call void @llvm.lifetime.end.p0(i64 4, ptr %6) #15
  call void @llvm.lifetime.end.p0(i64 4, ptr %5) #15
  call void @llvm.lifetime.end.p0(i64 1, ptr %4) #15
  call void @llvm.lifetime.end.p0(i64 1, ptr %3) #15
  call void @llvm.lifetime.end.p0(i64 1, ptr %2) #15
  call void @llvm.lifetime.end.p0(i64 256, ptr %1) #15
  ret i64 %71
}