; Function Attrs: nofree norecurse nosync nounwind memory(none) uwtable
define dso_local i64 @compute_something_fast() local_unnamed_addr #22 {
  %1 = alloca [256 x i8], align 16
  call void @llvm.lifetime.start.p0(i64 256, ptr nonnull %1) #33
  br label %2

2:                                                ; preds = %0, %2
  %indvars.iv = phi i64 [ 0, %0 ], [ %indvars.iv.next, %2 ]
  %3 = trunc i64 %indvars.iv to i8
  %4 = getelementptr inbounds nuw [256 x i8], ptr %1, i64 0, i64 %indvars.iv
  store i8 %3, ptr %4, align 1, !tbaa !67
  %indvars.iv.next = add nuw nsw i64 %indvars.iv, 1
  %exitcond.not = icmp eq i64 %indvars.iv.next, 256
  br i1 %exitcond.not, label %.preheader, label %2, !llvm.loop !213

.preheader:                                       ; preds = %2, %.preheader
  %.025 = phi i64 [ %21, %.preheader ], [ 0, %2 ]
  %.01824 = phi i32 [ %5, %.preheader ], [ 1000, %2 ]
  %.01923 = phi i8 [ %6, %.preheader ], [ 0, %2 ]
  %.02022 = phi i32 [ %11, %.preheader ], [ 0, %2 ]
  %5 = add nsw i32 %.01824, -1
  %6 = add i8 %.01923, 1
  %7 = zext i8 %6 to i64
  %8 = getelementptr inbounds nuw [256 x i8], ptr %1, i64 0, i64 %7
  %9 = load i8, ptr %8, align 1, !tbaa !67
  %10 = zext i8 %9 to i32
  %11 = add i32 %.02022, %10
  %12 = and i32 %11, 255
  %13 = zext nneg i32 %12 to i64
  %14 = getelementptr inbounds nuw [256 x i8], ptr %1, i64 0, i64 %13
  %15 = load i8, ptr %14, align 1, !tbaa !67
  store i8 %15, ptr %8, align 1, !tbaa !67
  store i8 %9, ptr %14, align 1, !tbaa !67
  %16 = load i8, ptr %8, align 1, !tbaa !67
  %.narrow = add i8 %16, %9
  %17 = zext i8 %.narrow to i64
  %18 = getelementptr inbounds nuw [256 x i8], ptr %1, i64 0, i64 %17
  %19 = load i8, ptr %18, align 1, !tbaa !67
  %20 = zext i8 %19 to i64
  %21 = add i64 %.025, %20
  %.not = icmp eq i32 %5, 0
  br i1 %.not, label %22, label %.preheader, !llvm.loop !214

22:                                               ; preds = %.preheader
  call void @llvm.lifetime.end.p0(i64 256, ptr nonnull %1) #33
  ret i64 %21
}